target datalayout = "e-m:e-p270:32:32-p271:32:32-p272:64:64-i64:64-i128:128-f80:128-n8:16:32:64-S128"
target triple = "x86_64-pc-linux-gnu"

%struct.AVFilterContext = type { ptr, ptr, ptr, ptr, ptr, i32, ptr, ptr, i32, ptr, ptr, i32, i32, ptr, ptr, ptr, ptr, i32, ptr, i32, i32 }
%struct.AlphaMergeContext = type { ptr, i32, [4 x i8], %struct.FFFrameSync }
%struct.FFFrameSync = type { ptr, ptr, i32, %struct.AVRational, i64, ptr, ptr, i32, i32, i8, i8, ptr, i32, i32, i32, i32 }
%struct.AVRational = type { i32, i32 }
%struct.AVChannelLayout = type { i32, i32, %union.anon.1, ptr }
%union.anon.1 = type { i64 }
%struct.AVFrame = type { [8 x ptr], [8 x i32], ptr, i32, i32, i32, i32, i32, %struct.AVRational, i64, i64, %struct.AVRational, i32, ptr, i32, i32, [8 x ptr], ptr, i32, ptr, i32, i32, i32, i32, i32, i32, i32, i64, ptr, i32, ptr, ptr, i64, i64, i64, i64, ptr, %struct.AVChannelLayout, i64 }

@.str.7 = private unnamed_addr constant [61 x i8] c"alpha plane color range tagged as %s, output will be wrong!\0A\00", align 1

; Function Attrs: nounwind uwtable
define internal i32 @do_alphamerge(ptr noundef %0) #0 {
  %2 = alloca i32, align 4
  %3 = alloca ptr, align 8
  %4 = alloca ptr, align 8
  %5 = alloca ptr, align 8
  %6 = alloca ptr, align 8
  %7 = alloca ptr, align 8
  %8 = alloca i32, align 4
  %9 = alloca i32, align 4
  %10 = alloca i32, align 4
  %11 = alloca i32, align 4
  %12 = alloca ptr, align 8
  %13 = alloca ptr, align 8
  %14 = alloca i32, align 4
  %15 = alloca i32, align 4
  store ptr %0, ptr %3, align 8, !tbaa !54
  call void @llvm.lifetime.start.p0(i64 8, ptr %4) #6
  %16 = load ptr, ptr %3, align 8, !tbaa !54
  %17 = getelementptr inbounds nuw %struct.FFFrameSync, ptr %16, i32 0, i32 1
  %18 = load ptr, ptr %17, align 8, !tbaa !56
  store ptr %18, ptr %4, align 8, !tbaa !4
  call void @llvm.lifetime.start.p0(i64 8, ptr %5) #6
  %19 = load ptr, ptr %4, align 8, !tbaa !4
  %20 = getelementptr inbounds nuw %struct.AVFilterContext, ptr %19, i32 0, i32 9
  %21 = load ptr, ptr %20, align 8, !tbaa !9
  store ptr %21, ptr %5, align 8, !tbaa !22
  call void @llvm.lifetime.start.p0(i64 8, ptr %6) #6
  call void @llvm.lifetime.start.p0(i64 8, ptr %7) #6
  call void @llvm.lifetime.start.p0(i64 4, ptr %8) #6
  %22 = load ptr, ptr %3, align 8, !tbaa !54
  %23 = call i32 @ff_framesync_dualinput_get_writable(ptr noundef %22, ptr noundef %6, ptr noundef %7)
  store i32 %23, ptr %8, align 4, !tbaa !34
  %24 = load i32, ptr %8, align 4, !tbaa !34
  %25 = icmp slt i32 %24, 0
  br i1 %25, label %26, label %28

26:                                               ; preds = %1
  %27 = load i32, ptr %8, align 4, !tbaa !34
  store i32 %27, ptr %2, align 4
  store i32 1, ptr %9, align 4
  br label %155

28:                                               ; preds = %1
  %29 = load ptr, ptr %7, align 8, !tbaa !57
  %30 = icmp ne ptr %29, null
  br i1 %30, label %39, label %31

31:                                               ; preds = %28
  %32 = load ptr, ptr %4, align 8, !tbaa !4
  %33 = getelementptr inbounds nuw %struct.AVFilterContext, ptr %32, i32 0, i32 7
  %34 = load ptr, ptr %33, align 8, !tbaa !59
  %35 = getelementptr inbounds ptr, ptr %34, i64 0
  %36 = load ptr, ptr %35, align 8, !tbaa !35
  %37 = load ptr, ptr %6, align 8, !tbaa !57
  %38 = call i32 @ff_filter_frame(ptr noundef %36, ptr noundef %37)
  store i32 %38, ptr %2, align 4
  store i32 1, ptr %9, align 4
  br label %155

39:                                               ; preds = %28
  %40 = load ptr, ptr %7, align 8, !tbaa !57
  %41 = getelementptr inbounds nuw %struct.AVFrame, ptr %40, i32 0, i32 22
  %42 = load i32, ptr %41, align 8, !tbaa !60
  %43 = icmp eq i32 %42, 1
  br i1 %43, label %44, label %50

44:                                               ; preds = %39
  %45 = load ptr, ptr %4, align 8, !tbaa !4
  %46 = load ptr, ptr %7, align 8, !tbaa !57
  %47 = getelementptr inbounds nuw %struct.AVFrame, ptr %46, i32 0, i32 22
  %48 = load i32, ptr %47, align 8, !tbaa !60
  %49 = call ptr @av_color_range_name(i32 noundef %48)
  call void (ptr, i32, ptr, ...) @av_log(ptr noundef %45, i32 noundef 24, ptr noundef @.str.7, ptr noundef %49)
  br label %50

50:                                               ; preds = %44, %39
  %51 = load ptr, ptr %5, align 8, !tbaa !22
  %52 = getelementptr inbounds nuw %struct.AlphaMergeContext, ptr %51, i32 0, i32 1
  %53 = load i32, ptr %52, align 8, !tbaa !45
  %54 = icmp ne i32 %53, 0
  br i1 %54, label %55, label %116

55:                                               ; preds = %50
  call void @llvm.lifetime.start.p0(i64 4, ptr %10) #6
  call void @llvm.lifetime.start.p0(i64 4, ptr %11) #6
  call void @llvm.lifetime.start.p0(i64 8, ptr %12) #6
  call void @llvm.lifetime.start.p0(i64 8, ptr %13) #6
  store i32 0, ptr %11, align 4, !tbaa !34
  br label %56

56:                                               ; preds = %112, %55
  %57 = load i32, ptr %11, align 4, !tbaa !34
  %58 = load ptr, ptr %6, align 8, !tbaa !57
  %59 = getelementptr inbounds nuw %struct.AVFrame, ptr %58, i32 0, i32 4
  %60 = load i32, ptr %59, align 4, !tbaa !65
  %61 = icmp slt i32 %57, %60
  br i1 %61, label %62, label %115

62:                                               ; preds = %56
  %63 = load ptr, ptr %7, align 8, !tbaa !57
  %64 = getelementptr inbounds nuw %struct.AVFrame, ptr %63, i32 0, i32 0
  %65 = getelementptr inbounds [8 x ptr], ptr %64, i64 0, i64 0
  %66 = load ptr, ptr %65, align 8, !tbaa !66
  %67 = load i32, ptr %11, align 4, !tbaa !34
  %68 = load ptr, ptr %7, align 8, !tbaa !57
  %69 = getelementptr inbounds nuw %struct.AVFrame, ptr %68, i32 0, i32 1
  %70 = getelementptr inbounds [8 x i32], ptr %69, i64 0, i64 0
  %71 = load i32, ptr %70, align 8, !tbaa !34
  %72 = mul nsw i32 %67, %71
  %73 = sext i32 %72 to i64
  %74 = getelementptr inbounds i8, ptr %66, i64 %73
  store ptr %74, ptr %12, align 8, !tbaa !66
  %75 = load ptr, ptr %6, align 8, !tbaa !57
  %76 = getelementptr inbounds nuw %struct.AVFrame, ptr %75, i32 0, i32 0
  %77 = getelementptr inbounds [8 x ptr], ptr %76, i64 0, i64 0
  %78 = load ptr, ptr %77, align 8, !tbaa !66
  %79 = load i32, ptr %11, align 4, !tbaa !34
  %80 = load ptr, ptr %6, align 8, !tbaa !57
  %81 = getelementptr inbounds nuw %struct.AVFrame, ptr %80, i32 0, i32 1
  %82 = getelementptr inbounds [8 x i32], ptr %81, i64 0, i64 0
  %83 = load i32, ptr %82, align 8, !tbaa !34
  %84 = mul nsw i32 %79, %83
  %85 = sext i32 %84 to i64
  %86 = getelementptr inbounds i8, ptr %78, i64 %85
  %87 = load ptr, ptr %5, align 8, !tbaa !22
  %88 = getelementptr inbounds nuw %struct.AlphaMergeContext, ptr %87, i32 0, i32 2
  %89 = getelementptr inbounds [4 x i8], ptr %88, i64 0, i64 3
  %90 = load i8, ptr %89, align 1, !tbaa !67
  %91 = zext i8 %90 to i32
  %92 = sext i32 %91 to i64
  %93 = getelementptr inbounds i8, ptr %86, i64 %92
  store ptr %93, ptr %13, align 8, !tbaa !66
  store i32 0, ptr %10, align 4, !tbaa !34
  br label %94

94:                                               ; preds = %108, %62
  %95 = load i32, ptr %10, align 4, !tbaa !34
  %96 = load ptr, ptr %6, align 8, !tbaa !57
  %97 = getelementptr inbounds nuw %struct.AVFrame, ptr %96, i32 0, i32 3
  %98 = load i32, ptr %97, align 8, !tbaa !68
  %99 = icmp slt i32 %95, %98
  br i1 %99, label %100, label %111

100:                                              ; preds = %94
  %101 = load ptr, ptr %12, align 8, !tbaa !66
  %102 = load i8, ptr %101, align 1, !tbaa !67
  %103 = load ptr, ptr %13, align 8, !tbaa !66
  store i8 %102, ptr %103, align 1, !tbaa !67
  %104 = load ptr, ptr %12, align 8, !tbaa !66
  %105 = getelementptr inbounds i8, ptr %104, i64 1
  store ptr %105, ptr %12, align 8, !tbaa !66
  %106 = load ptr, ptr %13, align 8, !tbaa !66
  %107 = getelementptr inbounds i8, ptr %106, i64 4
  store ptr %107, ptr %13, align 8, !tbaa !66
  br label %108

108:                                              ; preds = %100
  %109 = load i32, ptr %10, align 4, !tbaa !34
  %110 = add nsw i32 %109, 1
  store i32 %110, ptr %10, align 4, !tbaa !34
  br label %94, !llvm.loop !69

111:                                              ; preds = %94
  br label %112

112:                                              ; preds = %111
  %113 = load i32, ptr %11, align 4, !tbaa !34
  %114 = add nsw i32 %113, 1
  store i32 %114, ptr %11, align 4, !tbaa !34
  br label %56, !llvm.loop !71

115:                                              ; preds = %56
  call void @llvm.lifetime.end.p0(i64 8, ptr %13) #6
  call void @llvm.lifetime.end.p0(i64 8, ptr %12) #6
  call void @llvm.lifetime.end.p0(i64 4, ptr %11) #6
  call void @llvm.lifetime.end.p0(i64 4, ptr %10) #6
  br label %147

116:                                              ; preds = %50
  call void @llvm.lifetime.start.p0(i64 4, ptr %14) #6
  %117 = load ptr, ptr %6, align 8, !tbaa !57
  %118 = getelementptr inbounds nuw %struct.AVFrame, ptr %117, i32 0, i32 1
  %119 = getelementptr inbounds [8 x i32], ptr %118, i64 0, i64 3
  %120 = load i32, ptr %119, align 4, !tbaa !34
  store i32 %120, ptr %14, align 4, !tbaa !34
  call void @llvm.lifetime.start.p0(i64 4, ptr %15) #6
  %121 = load ptr, ptr %7, align 8, !tbaa !57
  %122 = getelementptr inbounds nuw %struct.AVFrame, ptr %121, i32 0, i32 1
  %123 = getelementptr inbounds [8 x i32], ptr %122, i64 0, i64 0
  %124 = load i32, ptr %123, align 8, !tbaa !34
  store i32 %124, ptr %15, align 4, !tbaa !34
  %125 = load ptr, ptr %6, align 8, !tbaa !57
  %126 = getelementptr inbounds nuw %struct.AVFrame, ptr %125, i32 0, i32 0
  %127 = getelementptr inbounds [8 x ptr], ptr %126, i64 0, i64 3
  %128 = load ptr, ptr %127, align 8, !tbaa !66
  %129 = load i32, ptr %14, align 4, !tbaa !34
  %130 = load ptr, ptr %7, align 8, !tbaa !57
  %131 = getelementptr inbounds nuw %struct.AVFrame, ptr %130, i32 0, i32 0
  %132 = getelementptr inbounds [8 x ptr], ptr %131, i64 0, i64 0
  %133 = load ptr, ptr %132, align 8, !tbaa !66
  %134 = load i32, ptr %15, align 4, !tbaa !34
  %135 = load i32, ptr %14, align 4, !tbaa !34
  %136 = load i32, ptr %15, align 4, !tbaa !34
  %137 = icmp sgt i32 %135, %136
  br i1 %137, label %138, label %140

138:                                              ; preds = %116
  %139 = load i32, ptr %15, align 4, !tbaa !34
  br label %142

140:                                              ; preds = %116
  %141 = load i32, ptr %14, align 4, !tbaa !34
  br label %142

142:                                              ; preds = %140, %138
  %143 = phi i32 [ %139, %138 ], [ %141, %140 ]
  %144 = load ptr, ptr %7, align 8, !tbaa !57
  %145 = getelementptr inbounds nuw %struct.AVFrame, ptr %144, i32 0, i32 4
  %146 = load i32, ptr %145, align 4, !tbaa !65
  call void @av_image_copy_plane(ptr noundef %128, i32 noundef %129, ptr noundef %133, i32 noundef %134, i32 noundef %143, i32 noundef %146)
  call void @llvm.lifetime.end.p0(i64 4, ptr %15) #6
  call void @llvm.lifetime.end.p0(i64 4, ptr %14) #6
  br label %147

147:                                              ; preds = %142, %115
  %148 = load ptr, ptr %4, align 8, !tbaa !4
  %149 = getelementptr inbounds nuw %struct.AVFilterContext, ptr %148, i32 0, i32 7
  %150 = load ptr, ptr %149, align 8, !tbaa !59
  %151 = getelementptr inbounds ptr, ptr %150, i64 0
  %152 = load ptr, ptr %151, align 8, !tbaa !35
  %153 = load ptr, ptr %6, align 8, !tbaa !57
  %154 = call i32 @ff_filter_frame(ptr noundef %152, ptr noundef %153)
  store i32 %154, ptr %2, align 4
  store i32 1, ptr %9, align 4
  br label %155

155:                                              ; preds = %147, %31, %26
  call void @llvm.lifetime.end.p0(i64 4, ptr %8) #6
  call void @llvm.lifetime.end.p0(i64 8, ptr %7) #6
  call void @llvm.lifetime.end.p0(i64 8, ptr %6) #6
  call void @llvm.lifetime.end.p0(i64 8, ptr %5) #6
  call void @llvm.lifetime.end.p0(i64 8, ptr %4) #6
  %156 = load i32, ptr %2, align 4
  ret i32 %156
}