; Function Attrs: nounwind uwtable
define internal i32 @do_alphamerge(ptr noundef %0) #0 {
  %2 = alloca ptr, align 8
  %3 = alloca ptr, align 8
  %4 = getelementptr inbounds nuw i8, ptr %0, i64 8
  %5 = load ptr, ptr %4, align 8, !tbaa !44
  %6 = getelementptr inbounds nuw i8, ptr %5, i64 72
  %7 = load ptr, ptr %6, align 8, !tbaa !4
  call void @llvm.lifetime.start.p0(i64 8, ptr nonnull %2) #7
  call void @llvm.lifetime.start.p0(i64 8, ptr nonnull %3) #7
  %8 = call i32 @ff_framesync_dualinput_get_writable(ptr noundef %0, ptr noundef nonnull %2, ptr noundef nonnull %3) #7
  %9 = icmp slt i32 %8, 0
  br i1 %9, label %85, label %10

10:                                               ; preds = %1
  %11 = load ptr, ptr %3, align 8, !tbaa !45
  %.not = icmp eq ptr %11, null
  br i1 %.not, label %12, label %18

12:                                               ; preds = %10
  %13 = getelementptr inbounds nuw i8, ptr %5, i64 56
  %14 = load ptr, ptr %13, align 8, !tbaa !47
  %15 = load ptr, ptr %14, align 8, !tbaa !40
  %16 = load ptr, ptr %2, align 8, !tbaa !45
  %17 = call i32 @ff_filter_frame(ptr noundef %15, ptr noundef %16) #7
  br label %85

18:                                               ; preds = %10
  %19 = getelementptr inbounds nuw i8, ptr %11, i64 280
  %20 = load i32, ptr %19, align 8, !tbaa !48
  %21 = icmp eq i32 %20, 1
  br i1 %21, label %22, label %24

22:                                               ; preds = %18
  %23 = call ptr @av_color_range_name(i32 noundef 1) #7
  call void (ptr, i32, ptr, ...) @av_log(ptr noundef nonnull %5, i32 noundef 24, ptr noundef nonnull @.str.7, ptr noundef %23) #7
  br label %24

24:                                               ; preds = %22, %18
  %25 = getelementptr inbounds nuw i8, ptr %7, i64 8
  %26 = load i32, ptr %25, align 8, !tbaa !37
  %.not33 = icmp eq i32 %26, 0
  %27 = load ptr, ptr %2, align 8, !tbaa !45
  br i1 %.not33, label %68, label %.preheader

.preheader:                                       ; preds = %24
  %28 = getelementptr inbounds nuw i8, ptr %27, i64 108
  %29 = load i32, ptr %28, align 4, !tbaa !53
  %30 = icmp sgt i32 %29, 0
  br i1 %30, label %.lr.ph38, label %.loopexit

.lr.ph38:                                         ; preds = %.preheader
  %31 = getelementptr inbounds nuw i8, ptr %7, i64 15
  %32 = getelementptr inbounds nuw i8, ptr %27, i64 104
  %33 = load i32, ptr %32, align 8, !tbaa !54
  %34 = icmp sgt i32 %33, 0
  br i1 %34, label %.lr.ph38.split, label %.loopexit

.lr.ph38.split:                                   ; preds = %.lr.ph38, %._crit_edge
  %35 = phi ptr [ %63, %._crit_edge ], [ %27, %.lr.ph38 ]
  %.02837 = phi i32 [ %64, %._crit_edge ], [ 0, %.lr.ph38 ]
  %36 = getelementptr inbounds nuw i8, ptr %35, i64 104
  %37 = load i32, ptr %36, align 8, !tbaa !54
  %38 = icmp sgt i32 %37, 0
  br i1 %38, label %.lr.ph.preheader, label %._crit_edge

.lr.ph.preheader:                                 ; preds = %.lr.ph38.split
  %39 = load ptr, ptr %35, align 8, !tbaa !55
  %40 = getelementptr inbounds nuw i8, ptr %35, i64 64
  %41 = load i32, ptr %40, align 8, !tbaa !56
  %42 = mul nsw i32 %41, %.02837
  %43 = sext i32 %42 to i64
  %44 = getelementptr inbounds i8, ptr %39, i64 %43
  %45 = load i8, ptr %31, align 1, !tbaa !57
  %46 = zext i8 %45 to i64
  %47 = getelementptr inbounds nuw i8, ptr %44, i64 %46
  %48 = load ptr, ptr %3, align 8, !tbaa !45
  %49 = load ptr, ptr %48, align 8, !tbaa !55
  %50 = getelementptr inbounds nuw i8, ptr %48, i64 64
  %51 = load i32, ptr %50, align 8, !tbaa !56
  %52 = mul nsw i32 %51, %.02837
  %53 = sext i32 %52 to i64
  %54 = getelementptr inbounds i8, ptr %49, i64 %53
  br label %.lr.ph

.lr.ph:                                           ; preds = %.lr.ph.preheader, %.lr.ph
  %.02636 = phi ptr [ %57, %.lr.ph ], [ %47, %.lr.ph.preheader ]
  %.02735 = phi ptr [ %56, %.lr.ph ], [ %54, %.lr.ph.preheader ]
  %.02934 = phi i32 [ %58, %.lr.ph ], [ 0, %.lr.ph.preheader ]
  %55 = load i8, ptr %.02735, align 1, !tbaa !57
  store i8 %55, ptr %.02636, align 1, !tbaa !57
  %56 = getelementptr inbounds nuw i8, ptr %.02735, i64 1
  %57 = getelementptr inbounds nuw i8, ptr %.02636, i64 4
  %58 = add nuw nsw i32 %.02934, 1
  %59 = load ptr, ptr %2, align 8, !tbaa !45
  %60 = getelementptr inbounds nuw i8, ptr %59, i64 104
  %61 = load i32, ptr %60, align 8, !tbaa !54
  %62 = icmp slt i32 %58, %61
  br i1 %62, label %.lr.ph, label %._crit_edge, !llvm.loop !58

._crit_edge:                                      ; preds = %.lr.ph, %.lr.ph38.split
  %63 = phi ptr [ %35, %.lr.ph38.split ], [ %59, %.lr.ph ]
  %64 = add nuw nsw i32 %.02837, 1
  %65 = getelementptr inbounds nuw i8, ptr %63, i64 108
  %66 = load i32, ptr %65, align 4, !tbaa !53
  %67 = icmp slt i32 %64, %66
  br i1 %67, label %.lr.ph38.split, label %.loopexit, !llvm.loop !60

68:                                               ; preds = %24
  %69 = getelementptr inbounds nuw i8, ptr %27, i64 76
  %70 = load i32, ptr %69, align 4, !tbaa !56
  %71 = load ptr, ptr %3, align 8, !tbaa !45
  %72 = getelementptr inbounds nuw i8, ptr %71, i64 64
  %73 = load i32, ptr %72, align 8, !tbaa !56
  %74 = getelementptr inbounds nuw i8, ptr %27, i64 24
  %75 = load ptr, ptr %74, align 8, !tbaa !55
  %76 = load ptr, ptr %71, align 8, !tbaa !55
  %77 = call i32 @llvm.smin.i32(i32 %70, i32 %73)
  %78 = getelementptr inbounds nuw i8, ptr %71, i64 108
  %79 = load i32, ptr %78, align 4, !tbaa !53
  call void @av_image_copy_plane(ptr noundef %75, i32 noundef %70, ptr noundef %76, i32 noundef %73, i32 noundef %77, i32 noundef %79) #7
  %.pre = load ptr, ptr %2, align 8, !tbaa !45
  br label %.loopexit

.loopexit:                                        ; preds = %._crit_edge, %.lr.ph38, %.preheader, %68
  %80 = phi ptr [ %27, %.preheader ], [ %.pre, %68 ], [ %27, %.lr.ph38 ], [ %63, %._crit_edge ]
  %81 = getelementptr inbounds nuw i8, ptr %5, i64 56
  %82 = load ptr, ptr %81, align 8, !tbaa !47
  %83 = load ptr, ptr %82, align 8, !tbaa !40
  %84 = call i32 @ff_filter_frame(ptr noundef %83, ptr noundef %80) #7
  br label %85

85:                                               ; preds = %1, %.loopexit, %12
  %.0 = phi i32 [ %84, %.loopexit ], [ %17, %12 ], [ %8, %1 ]
  call void @llvm.lifetime.end.p0(i64 8, ptr nonnull %3) #7
  call void @llvm.lifetime.end.p0(i64 8, ptr nonnull %2) #7
  ret i32 %.0
}